target datalayout = "e-m:e-p270:32:32-p271:32:32-p272:64:64-i64:64-i128:128-f80:128-n8:16:32:64-S128"
target triple = "x86_64-pc-linux-gnu"

%struct.tcg_region_state = type { %struct.QemuMutex, ptr, ptr, i64, i64, i64, i64, i64, i64 }
%struct.QemuMutex = type { %union.pthread_mutex_t, i8 }
%union.pthread_mutex_t = type { %struct.__pthread_mutex_s }
%struct.__pthread_mutex_s = type { i32, i32, i32, i32, i32, i16, i16, %struct.__pthread_internal_list }
%struct.__pthread_internal_list = type { ptr, ptr }
%struct.tb_tc = type { ptr, i64 }
%struct.tcg_region_tree = type { %struct.QemuMutex, ptr }

@region = internal global %struct.tcg_region_state zeroinitializer, align 8
@.str = private unnamed_addr constant [21 x i8] c"../qemu/tcg/region.c\00", align 1
@qemu_mutex_lock_func = external global ptr, align 8
@region_trees = internal global ptr null, align 8
@tree_size = internal global i64 0, align 8
@tcg_splitwx_diff = external global i64, align 8

; Function Attrs: nounwind sspstrong uwtable
define dso_local zeroext i1 @in_code_gen_buffer(ptr noundef %0) #0 {
  %2 = alloca ptr, align 8
  store ptr %0, ptr %2, align 8
  %3 = load ptr, ptr %2, align 8
  %4 = load ptr, ptr getelementptr inbounds nuw (%struct.tcg_region_state, ptr @region, i32 0, i32 1), align 8
  %5 = ptrtoint ptr %3 to i64
  %6 = ptrtoint ptr %4 to i64
  %7 = sub i64 %5, %6
  %8 = load i64, ptr getelementptr inbounds nuw (%struct.tcg_region_state, ptr @region, i32 0, i32 6), align 8
  %9 = icmp ule i64 %7, %8
  ret i1 %9
}

; Function Attrs: nounwind sspstrong uwtable
define internal ptr @tc_ptr_to_region_tree(ptr noundef %0) #0 {
  %2 = alloca ptr, align 8
  %3 = alloca ptr, align 8
  %4 = alloca i64, align 8
  %5 = alloca i32, align 4
  %6 = alloca i64, align 8
  store ptr %0, ptr %3, align 8
  call void @llvm.lifetime.start.p0(i64 8, ptr %4) #11
  store i64 0, ptr %4, align 8, !annotation !4
  %7 = load ptr, ptr %3, align 8
  %8 = call zeroext i1 @in_code_gen_buffer(ptr noundef %7)
  br i1 %8, label %18, label %9

9:                                                ; preds = %1
  %10 = load i64, ptr @tcg_splitwx_diff, align 8
  %11 = load ptr, ptr %3, align 8
  %12 = sub i64 0, %10
  %13 = getelementptr inbounds i8, ptr %11, i64 %12
  store ptr %13, ptr %3, align 8
  %14 = load ptr, ptr %3, align 8
  %15 = call zeroext i1 @in_code_gen_buffer(ptr noundef %14)
  br i1 %15, label %17, label %16

16:                                               ; preds = %9
  store ptr null, ptr %2, align 8
  store i32 1, ptr %5, align 4
  br label %49

17:                                               ; preds = %9
  br label %18

18:                                               ; preds = %17, %1
  %19 = load ptr, ptr %3, align 8
  %20 = load ptr, ptr getelementptr inbounds nuw (%struct.tcg_region_state, ptr @region, i32 0, i32 1), align 8
  %21 = icmp ult ptr %19, %20
  br i1 %21, label %22, label %23

22:                                               ; preds = %18
  store i64 0, ptr %4, align 8
  br label %43

23:                                               ; preds = %18
  call void @llvm.lifetime.start.p0(i64 8, ptr %6) #11
  %24 = load ptr, ptr %3, align 8
  %25 = load ptr, ptr getelementptr inbounds nuw (%struct.tcg_region_state, ptr @region, i32 0, i32 1), align 8
  %26 = ptrtoint ptr %24 to i64
  %27 = ptrtoint ptr %25 to i64
  %28 = sub i64 %26, %27
  store i64 %28, ptr %6, align 8
  %29 = load i64, ptr %6, align 8
  %30 = load i64, ptr getelementptr inbounds nuw (%struct.tcg_region_state, ptr @region, i32 0, i32 5), align 8
  %31 = load i64, ptr getelementptr inbounds nuw (%struct.tcg_region_state, ptr @region, i32 0, i32 3), align 8
  %32 = sub i64 %31, 1
  %33 = mul i64 %30, %32
  %34 = icmp ugt i64 %29, %33
  br i1 %34, label %35, label %38

35:                                               ; preds = %23
  %36 = load i64, ptr getelementptr inbounds nuw (%struct.tcg_region_state, ptr @region, i32 0, i32 3), align 8
  %37 = sub i64 %36, 1
  store i64 %37, ptr %4, align 8
  br label %42

38:                                               ; preds = %23
  %39 = load i64, ptr %6, align 8
  %40 = load i64, ptr getelementptr inbounds nuw (%struct.tcg_region_state, ptr @region, i32 0, i32 5), align 8
  %41 = udiv i64 %39, %40
  store i64 %41, ptr %4, align 8
  br label %42

42:                                               ; preds = %38, %35
  call void @llvm.lifetime.end.p0(i64 8, ptr %6) #11
  br label %43

43:                                               ; preds = %42, %22
  %44 = load ptr, ptr @region_trees, align 8
  %45 = load i64, ptr %4, align 8
  %46 = load i64, ptr @tree_size, align 8
  %47 = mul i64 %45, %46
  %48 = getelementptr inbounds nuw i8, ptr %44, i64 %47
  store ptr %48, ptr %2, align 8
  store i32 1, ptr %5, align 4
  br label %49

49:                                               ; preds = %43, %16
  call void @llvm.lifetime.end.p0(i64 8, ptr %4) #11
  %50 = load ptr, ptr %2, align 8
  ret ptr %50
}

; Function Attrs: nounwind sspstrong uwtable
define dso_local ptr @tcg_tb_lookup(i64 noundef %0) #0 {
  %2 = alloca ptr, align 8
  %3 = alloca i64, align 8
  %4 = alloca ptr, align 8
  %5 = alloca ptr, align 8
  %6 = alloca %struct.tb_tc, align 8
  %7 = alloca i32, align 4
  %8 = alloca ptr, align 8
  %9 = alloca ptr, align 8
  %10 = alloca ptr, align 8
  store i64 %0, ptr %3, align 8
  call void @llvm.lifetime.start.p0(i64 8, ptr %4) #11
  %11 = load i64, ptr %3, align 8
  %12 = inttoptr i64 %11 to ptr
  %13 = call ptr @tc_ptr_to_region_tree(ptr noundef %12)
  store ptr %13, ptr %4, align 8
  call void @llvm.lifetime.start.p0(i64 8, ptr %5) #11
  store ptr null, ptr %5, align 8, !annotation !4
  call void @llvm.lifetime.start.p0(i64 16, ptr %6) #11
  call void @llvm.memset.p0.i64(ptr align 8 %6, i8 0, i64 16, i1 false), !annotation !4
  %14 = getelementptr inbounds nuw %struct.tb_tc, ptr %6, i32 0, i32 0
  %15 = load i64, ptr %3, align 8
  %16 = inttoptr i64 %15 to ptr
  store ptr %16, ptr %14, align 8
  %17 = getelementptr inbounds nuw %struct.tb_tc, ptr %6, i32 0, i32 1
  store i64 0, ptr %17, align 8
  %18 = load ptr, ptr %4, align 8
  %19 = icmp eq ptr %18, null
  br i1 %19, label %20, label %21

20:                                               ; preds = %1
  store ptr null, ptr %2, align 8
  store i32 1, ptr %7, align 4
  br label %38

21:                                               ; preds = %1
  call void @llvm.lifetime.start.p0(i64 8, ptr %8) #11
  br label %22

22:                                               ; preds = %21
  br i1 false, label %23, label %24

23:                                               ; preds = %22
  call void @qemu_build_not_reached_always() #12, !srcloc !7
  unreachable

24:                                               ; preds = %22
  %25 = load atomic i64, ptr @qemu_mutex_lock_func monotonic, align 8
  store i64 %25, ptr %10, align 8
  %26 = load ptr, ptr %10, align 8
  store ptr %26, ptr %9, align 8
  %27 = load ptr, ptr %9, align 8
  store ptr %27, ptr %8, align 8
  %28 = load ptr, ptr %8, align 8
  %29 = load ptr, ptr %4, align 8
  %30 = getelementptr inbounds nuw %struct.tcg_region_tree, ptr %29, i32 0, i32 0
  call void %28(ptr noundef %30, ptr noundef @.str, i32 noundef 258)
  call void @llvm.lifetime.end.p0(i64 8, ptr %8) #11
  %31 = load ptr, ptr %4, align 8
  %32 = getelementptr inbounds nuw %struct.tcg_region_tree, ptr %31, i32 0, i32 1
  %33 = load ptr, ptr %32, align 8
  %34 = call ptr @q_tree_lookup(ptr noundef %33, ptr noundef %6)
  store ptr %34, ptr %5, align 8
  %35 = load ptr, ptr %4, align 8
  %36 = getelementptr inbounds nuw %struct.tcg_region_tree, ptr %35, i32 0, i32 0
  call void @qemu_mutex_unlock_impl(ptr noundef %36, ptr noundef @.str, i32 noundef 260)
  %37 = load ptr, ptr %5, align 8
  store ptr %37, ptr %2, align 8
  store i32 1, ptr %7, align 4
  br label %38

38:                                               ; preds = %24, %20
  call void @llvm.lifetime.end.p0(i64 16, ptr %6) #11
  call void @llvm.lifetime.end.p0(i64 8, ptr %5) #11
  call void @llvm.lifetime.end.p0(i64 8, ptr %4) #11
  %39 = load ptr, ptr %2, align 8
  ret ptr %39
}