; Function Attrs: nounwind sspstrong uwtable
define dso_local ptr @tcg_tb_lookup(i64 noundef %0) local_unnamed_addr #1 {
  %2 = alloca %struct.tb_tc, align 8
  %3 = inttoptr i64 %0 to ptr
  %4 = load ptr, ptr getelementptr inbounds nuw (i8, ptr @region, i64 48), align 8
  %5 = ptrtoint ptr %4 to i64
  %6 = sub i64 %0, %5
  %7 = load i64, ptr getelementptr inbounds nuw (i8, ptr @region, i64 88), align 8
  %.not.i = icmp ugt i64 %6, %7
  br i1 %.not.i, label %8, label %14

8:                                                ; preds = %1
  %9 = load i64, ptr @tcg_splitwx_diff, align 8
  %10 = sub i64 0, %9
  %11 = getelementptr inbounds i8, ptr %3, i64 %10
  %12 = ptrtoint ptr %11 to i64
  %13 = sub i64 %12, %5
  %.not12.i = icmp ugt i64 %13, %7
  br i1 %.not12.i, label %tc_ptr_to_region_tree.exit.thread, label %14

tc_ptr_to_region_tree.exit.thread:                ; preds = %8
  call void @llvm.lifetime.start.p0(i64 16, ptr nonnull %2) #12
  br label %38

14:                                               ; preds = %8, %1
  %.09.i = phi ptr [ %3, %1 ], [ %11, %8 ]
  %15 = icmp ult ptr %.09.i, %4
  br i1 %15, label %tc_ptr_to_region_tree.exit, label %16

16:                                               ; preds = %14
  %17 = ptrtoint ptr %.09.i to i64
  %18 = sub i64 %17, %5
  %19 = load i64, ptr getelementptr inbounds nuw (i8, ptr @region, i64 80), align 8
  %20 = load i64, ptr getelementptr inbounds nuw (i8, ptr @region, i64 64), align 8
  %21 = add i64 %20, -1
  %22 = mul i64 %21, %19
  %23 = icmp ugt i64 %18, %22
  br i1 %23, label %tc_ptr_to_region_tree.exit, label %24

24:                                               ; preds = %16
  %25 = udiv i64 %18, %19
  br label %tc_ptr_to_region_tree.exit

tc_ptr_to_region_tree.exit:                       ; preds = %14, %16, %24
  %.08.i = phi i64 [ 0, %14 ], [ %25, %24 ], [ %21, %16 ]
  %26 = load ptr, ptr @region_trees, align 8
  %27 = load i64, ptr @tree_size, align 8
  call void @llvm.lifetime.start.p0(i64 16, ptr nonnull %2) #12
  store ptr %3, ptr %2, align 8
  %28 = getelementptr inbounds nuw i8, ptr %2, i64 8
  store i64 0, ptr %28, align 8
  %29 = icmp eq ptr %26, null
  br i1 %29, label %38, label %30

30:                                               ; preds = %tc_ptr_to_region_tree.exit
  %31 = mul i64 %27, %.08.i
  %32 = getelementptr inbounds nuw i8, ptr %26, i64 %31
  %33 = load atomic i64, ptr @qemu_mutex_lock_func monotonic, align 8
  %34 = inttoptr i64 %33 to ptr
  tail call void %34(ptr noundef nonnull %32, ptr noundef nonnull @.str, i32 noundef 258) #12
  %35 = getelementptr inbounds nuw i8, ptr %32, i64 48
  %36 = load ptr, ptr %35, align 8
  %37 = call ptr @q_tree_lookup(ptr noundef %36, ptr noundef nonnull %2) #12
  call void @qemu_mutex_unlock_impl(ptr noundef nonnull %32, ptr noundef nonnull @.str, i32 noundef 260) #12
  br label %38

38:                                               ; preds = %tc_ptr_to_region_tree.exit.thread, %tc_ptr_to_region_tree.exit, %30
  %.0 = phi ptr [ %37, %30 ], [ null, %tc_ptr_to_region_tree.exit ], [ null, %tc_ptr_to_region_tree.exit.thread ]
  call void @llvm.lifetime.end.p0(i64 16, ptr nonnull %2) #12
  ret ptr %.0
}